target datalayout = "e-m:e-p270:32:32-p271:32:32-p272:64:64-i64:64-i128:128-f80:128-n8:16:32:64-S128"
target triple = "x86_64-unknown-linux-gnu"

%struct.USBWacomState = type { %struct.USBDevice, ptr, ptr, i32, i32, i32, i32, i32, i32, i32, i32, i8, i32 }
%struct.USBDevice = type { %struct.DeviceState, ptr, ptr, ptr, ptr, i32, ptr, ptr, i32, i32, i8, [32 x i8], i32, i8, i32, [8 x i8], [4096 x i8], i32, i32, i32, i32, %struct.USBEndpoint, [15 x %struct.USBEndpoint], [15 x %struct.USBEndpoint], %struct.anon, ptr, ptr, i32, i32, [16 x i32], ptr, [16 x ptr] }
%struct.DeviceState = type { %struct.Object, ptr, ptr, i8, i8, i64, ptr, i32, i8, ptr, %struct.NamedGPIOListHead, %struct.NamedClockListHead, %struct.BusStateHead, i32, i32, i32, %struct.ResettableState, ptr, %struct.MemReentrancyGuard }
%struct.Object = type { ptr, ptr, ptr, i32, ptr }
%struct.NamedGPIOListHead = type { ptr }
%struct.NamedClockListHead = type { ptr }
%struct.BusStateHead = type { ptr }
%struct.ResettableState = type { i32, i8, i8 }
%struct.MemReentrancyGuard = type { i8 }
%struct.USBEndpoint = type { i8, i8, i8, i8, i32, i32, i8, i8, ptr, %union.anon }
%union.anon = type { %struct.QTailQLink }
%struct.QTailQLink = type { ptr, ptr }
%struct.anon = type { ptr }

@.str = private unnamed_addr constant [17 x i8] c"usb-wacom-tablet\00", align 1
@.str.14 = private unnamed_addr constant [27 x i8] c"../qemu/hw/usb/dev-wacom.c\00", align 1
@__func__.USB_WACOM = private unnamed_addr constant [10 x i8] c"USB_WACOM\00", align 1

; Function Attrs: nounwind sspstrong uwtable
define internal ptr @USB_WACOM(ptr noundef %obj) #0 {
entry:
  %obj.addr = alloca ptr, align 8
  store ptr %obj, ptr %obj.addr, align 8
  %0 = load ptr, ptr %obj.addr, align 8
  %call = call ptr @object_dynamic_cast_assert(ptr noundef %0, ptr noundef @.str, ptr noundef @.str.14, i32 noundef 58, ptr noundef @__func__.USB_WACOM)
  ret ptr %call
}

; Function Attrs: nounwind sspstrong uwtable
define internal void @usb_wacom_realize(ptr noundef %dev, ptr noundef %errp) #0 {
entry:
  %dev.addr = alloca ptr, align 8
  %errp.addr = alloca ptr, align 8
  %s = alloca ptr, align 8
  store ptr %dev, ptr %dev.addr, align 8
  store ptr %errp, ptr %errp.addr, align 8
  %0 = load ptr, ptr %dev.addr, align 8
  %call = call ptr @USB_WACOM(ptr noundef %0)
  store ptr %call, ptr %s, align 8
  %1 = load ptr, ptr %dev.addr, align 8
  call void @usb_desc_create_serial(ptr noundef %1)
  %2 = load ptr, ptr %dev.addr, align 8
  call void @usb_desc_init(ptr noundef %2)
  %3 = load ptr, ptr %dev.addr, align 8
  %call1 = call ptr @usb_ep_get(ptr noundef %3, i32 noundef 105, i32 noundef 1)
  %4 = load ptr, ptr %s, align 8
  %intr = getelementptr inbounds %struct.USBWacomState, ptr %4, i32 0, i32 1
  store ptr %call1, ptr %intr, align 8
  %5 = load ptr, ptr %s, align 8
  %changed = getelementptr inbounds %struct.USBWacomState, ptr %5, i32 0, i32 12
  store i32 1, ptr %changed, align 4
  ret void
}