; Function Attrs: nounwind sspstrong uwtable
define internal void @usb_wacom_realize(ptr noundef %dev, ptr readnone captures(none) %errp) #0 {
entry:
  %call.i = tail call ptr @object_dynamic_cast_assert(ptr noundef %dev, ptr noundef nonnull @.str, ptr noundef nonnull @.str.14, i32 noundef 58, ptr noundef nonnull @__func__.USB_WACOM) #7
  tail call void @usb_desc_create_serial(ptr noundef %dev) #7
  tail call void @usb_desc_init(ptr noundef %dev) #7
  %call1 = tail call ptr @usb_ep_get(ptr noundef %dev, i32 noundef 105, i32 noundef 1) #7
  %intr = getelementptr inbounds nuw i8, ptr %call.i, i64 5864
  store ptr %call1, ptr %intr, align 8
  %changed = getelementptr inbounds nuw i8, ptr %call.i, i64 5916
  store i32 1, ptr %changed, align 4
  ret void
}